; Function Attrs: mustprogress nounwind uwtable
define void @_ZN6Assimp15RemoveVCProcessC2Ev(ptr noundef nonnull align 8 dereferenceable(40) %0) unnamed_addr #0 align 2 {
  tail call void @_ZN6Assimp11BaseProcessC2Ev(ptr noundef nonnull align 8 dereferenceable(24) %0) #13
  store ptr getelementptr inbounds nuw inrange(-16, 48) (i8, ptr @_ZTVN6Assimp15RemoveVCProcessE, i64 16), ptr %0, align 8
  %2 = getelementptr inbounds nuw i8, ptr %0, i64 24
  store i32 0, ptr %2, align 8
  %3 = getelementptr inbounds nuw i8, ptr %0, i64 32
  store ptr null, ptr %3, align 8
  ret void
}